(dp0
S'desc'
p1
S'Advanced slide'
p2
sS'time'
p3
F1502908102.567239
s.(dp0
S'desc'
p1
S'Advanced slide'
p2
sS'time'
p3
F1502908103.194784
s.(dp0
S'desc'
p1
S'Advanced slide'
p2
sS'time'
p3
F1502908104.94842
s.(dp0
S'desc'
p1
S'Advanced slide'
p2
sS'time'
p3
F1502908108.766426
s.(dp0
S'desc'
p1
S'Advanced slide'
p2
sS'time'
p3
F1502908111.038515
s.(dp0
S'desc'
p1
S'Advanced slide'
p2
sS'time'
p3
F1502908115.912385
s.(dp0
S'desc'
p1
S'Advanced slide'
p2
sS'time'
p3
F1502908121.06975
s.(dp0
S'desc'
p1
S'Advanced slide'
p2
sS'time'
p3
F1502908124.879309
s.(dp0
S'desc'
p1
S'Advanced slide'
p2
sS'time'
p3
F1502908126.592193
s.(dp0
S'desc'
p1
S'Advanced slide'
p2
sS'time'
p3
F1502908130.991004
s.(dp0
S'desc'
p1
S'Advanced slide'
p2
sS'time'
p3
F1502908133.694981
s.(dp0
S'desc'
p1
S'Advanced slide'
p2
sS'time'
p3
F1502908141.54164
s.(dp0
S'desc'
p1
S'Advanced slide'
p2
sS'time'
p3
F1502908145.894179
s.(dp0
S'desc'
p1
S'Advanced slide'
p2
sS'time'
p3
F1502908155.030128
s.(dp0
S'desc'
p1
S'Advanced slide'
p2
sS'time'
p3
F1502908158.514618
s.(dp0
S'desc'
p1
S'Advanced slide'
p2
sS'time'
p3
F1502908167.91204
s.(dp0
S'desc'
p1
S'Advanced slide'
p2
sS'time'
p3
F1502908172.441856
s.(dp0
S'desc'
p1
S'Advanced slide'
p2
sS'time'
p3
F1502908178.879873
s.(dp0
S'desc'
p1
S'Advanced slide'
p2
sS'time'
p3
F1502908184.023949
s.(dp0
S'desc'
p1
S'Advanced slide'
p2
sS'time'
p3
F1502908188.484752
s.(dp0
S'desc'
p1
S'Advanced slide'
p2
sS'time'
p3
F1502908196.241933
s.(dp0
S'desc'
p1
S'Advanced slide'
p2
sS'time'
p3
F1502908205.769025
s.(dp0
S'desc'
p1
S'Advanced slide'
p2
sS'time'
p3
F1502908207.343829
s.(dp0
S'desc'
p1
S'Advanced slide'
p2
sS'time'
p3
F1502908217.881097
s.(dp0
S'desc'
p1
S'Advanced slide'
p2
sS'time'
p3
F1502908221.653399
s.(dp0
S'desc'
p1
S'Advanced slide'
p2
sS'time'
p3
F1502908225.126564
s.(dp0
S'desc'
p1
S'Advanced slide'
p2
sS'time'
p3
F1502908225.991706
s.(dp0
S'desc'
p1
S'Advanced slide'
p2
sS'time'
p3
F1502908228.816669
s.(dp0
S'desc'
p1
S'Advanced slide'
p2
sS'time'
p3
F1502908229.710593
s.(dp0
S'desc'
p1
S'Advanced slide'
p2
sS'time'
p3
F1502908233.551278
s.(dp0
S'desc'
p1
S'Advanced slide'
p2
sS'time'
p3
F1502908234.459631
s.(dp0
S'desc'
p1
S'Advanced slide'
p2
sS'time'
p3
F1502908237.487042
s.(dp0
S'desc'
p1
S'Advanced slide'
p2
sS'time'
p3
F1502908238.814633
s.(dp0
S'desc'
p1
S'Advanced slide'
p2
sS'time'
p3
F1502908246.742673
s.(dp0
S'desc'
p1
S'Advanced slide'
p2
sS'time'
p3
F1502908248.02066
s.(dp0
S'desc'
p1
S'Advanced slide'
p2
sS'time'
p3
F1502908250.834275
s.(dp0
S'desc'
p1
S'Advanced slide'
p2
sS'time'
p3
F1502908260.109031
s.(dp0
S'desc'
p1
S'Advanced slide'
p2
sS'time'
p3
F1502908264.992835
s.(dp0
S'desc'
p1
S'Quit experiment'
p2
sS'time'
p3
F1502908266.170371
s.