(dp0
S'shape'
p1
NsS'update_time'
p2
F1502908292.135745
sS'uid'
p3
I1
sS'time'
p4
F1502908292.135745
sS'start_time'
p5
F1502908292.135745
sS'event_y'
p6
F935.0
sS'event_x'
p7
F775.0
sS'end_time'
p8
I-1
s.(dp0
S'shape'
p1
NsS'update_time'
p2
F1502908292.15927
sS'uid'
p3
I1
sS'time'
p4
F1502908292.15927
sS'start_time'
p5
F1502908292.135745
sS'event_y'
p6
F935.0
sS'event_x'
p7
F778.0
sS'end_time'
p8
I-1
s.(dp0
S'shape'
p1
NsS'update_time'
p2
F1502908292.20936
sS'uid'
p3
I1
sS'time'
p4
F1502908292.20936
sS'start_time'
p5
F1502908292.135745
sS'event_y'
p6
F932.0000000000001
sS'event_x'
p7
F778.0
sS'end_time'
p8
I-1
s.(dp0
S'shape'
p1
NsS'update_time'
p2
F1502908292.234084
sS'uid'
p3
I1
sS'time'
p4
F1502908292.234084
sS'start_time'
p5
F1502908292.135745
sS'event_y'
p6
F932.0000000000001
sS'event_x'
p7
F764.0
sS'end_time'
p8
I-1
s.(dp0
S'shape'
p1
NsS'update_time'
p2
F1502908292.247605
sS'uid'
p3
I1
sS'time'
p4
F1502908292.247605
sS'start_time'
p5
F1502908292.135745
sS'event_y'
p6
F932.0000000000001
sS'event_x'
p7
F769.0
sS'end_time'
p8
I-1
s.(dp0
S'shape'
p1
NsS'update_time'
p2
F1502908292.259944
sS'uid'
p3
I1
sS'time'
p4
F1502908292.259944
sS'start_time'
p5
F1502908292.135745
sS'event_y'
p6
F933.0
sS'event_x'
p7
F763.0
sS'end_time'
p8
I-1
s.(dp0
S'shape'
p1
NsS'update_time'
p2
F1502908292.308202
sS'uid'
p3
I1
sS'time'
p4
F1502908292.308202
sS'start_time'
p5
F1502908292.135745
sS'event_y'
p6
F934.0
sS'event_x'
p7
F763.0
sS'end_time'
p8
I-1
s.(dp0
S'shape'
p1
NsS'update_time'
p2
F1502908292.321745
sS'uid'
p3
I1
sS'time'
p4
F1502908292.321745
sS'start_time'
p5
F1502908292.135745
sS'event_y'
p6
F935.0
sS'event_x'
p7
F774.0
sS'end_time'
p8
I-1
s.(dp0
S'shape'
p1
NsS'update_time'
p2
F1502908292.333791
sS'uid'
p3
I1
sS'time'
p4
F1502908292.333791
sS'start_time'
p5
F1502908292.135745
sS'event_y'
p6
F936.0
sS'event_x'
p7
F769.0
sS'end_time'
p8
I-1
s.(dp0
S'shape'
p1
NsS'update_time'
p2
F1502908292.345905
sS'uid'
p3
I1
sS'time'
p4
F1502908292.345905
sS'start_time'
p5
F1502908292.135745
sS'event_y'
p6
F937.0
sS'event_x'
p7
F769.0
sS'end_time'
p8
I-1
s.(dp0
S'shape'
p1
NsS'update_time'
p2
F1502908292.358893
sS'uid'
p3
I1
sS'time'
p4
F1502908292.358893
sS'start_time'
p5
F1502908292.135745
sS'event_y'
p6
F938.0
sS'event_x'
p7
F769.0
sS'end_time'
p8
I-1
s.(dp0
S'shape'
p1
NsS'update_time'
p2
F1502908292.374738
sS'uid'
p3
I1
sS'time'
p4
F1502908292.374738
sS'start_time'
p5
F1502908292.135745
sS'event_y'
p6
F938.0
sS'event_x'
p7
F777.0
sS'end_time'
p8
I-1
s.(dp0
S'shape'
p1
NsS'update_time'
p2
F1502908292.391337
sS'uid'
p3
I1
sS'time'
p4
F1502908292.391337
sS'start_time'
p5
F1502908292.135745
sS'event_y'
p6
F938.0
sS'event_x'
p7
F774.0
sS'end_time'
p8
I-1
s.(dp0
S'shape'
p1
NsS'update_time'
p2
F1502908292.407925
sS'uid'
p3
I1
sS'time'
p4
F1502908292.407925
sS'start_time'
p5
F1502908292.135745
sS'event_y'
p6
F939.0
sS'event_x'
p7
F767.0
sS'end_time'
p8
I-1
s.(dp0
S'shape'
p1
NsS'update_time'
p2
F1502908292.436964
sS'uid'
p3
I1
sS'time'
p4
F1502908292.436964
sS'start_time'
p5
F1502908292.135745
sS'event_y'
p6
F940.0000000000001
sS'event_x'
p7
F772.0
sS'end_time'
p8
I-1
s.(dp0
S'shape'
p1
NsS'update_time'
p2
F1502908292.449633
sS'uid'
p3
I1
sS'time'
p4
F1502908292.449633
sS'start_time'
p5
F1502908292.135745
sS'event_y'
p6
F941.0
sS'event_x'
p7
F772.0
sS'end_time'
p8
I-1
s.(dp0
S'shape'
p1
NsS'update_time'
p2
F1502908292.46183
sS'uid'
p3
I1
sS'time'
p4
F1502908292.46183
sS'start_time'
p5
F1502908292.135745
sS'event_y'
p6
F942.0
sS'event_x'
p7
F772.0
sS'end_time'
p8
I-1
s.(dp0
S'shape'
p1
NsS'update_time'
p2
F1502908292.474121
sS'uid'
p3
I1
sS'time'
p4
F1502908292.474121
sS'start_time'
p5
F1502908292.135745
sS'event_y'
p6
F943.0
sS'event_x'
p7
F778.0
sS'end_time'
p8
I-1
s.(dp0
S'shape'
p1
NsS'update_time'
p2
F1502908292.490904
sS'uid'
p3
I1
sS'time'
p4
F1502908292.490904
sS'start_time'
p5
F1502908292.135745
sS'event_y'
p6
F944.0
sS'event_x'
p7
F766.0
sS'end_time'
p8
I-1
s.(dp0
S'shape'
p1
NsS'update_time'
p2
F1502908292.507497
sS'uid'
p3
I1
sS'time'
p4
F1502908292.507497
sS'start_time'
p5
F1502908292.135745
sS'event_y'
p6
F944.0
sS'event_x'
p7
F777.0
sS'end_time'
p8
I-1
s.(dp0
S'shape'
p1
NsS'update_time'
p2
F1502908292.524088
sS'uid'
p3
I1
sS'time'
p4
F1502908292.524088
sS'start_time'
p5
F1502908292.135745
sS'event_y'
p6
F944.0
sS'event_x'
p7
F765.0
sS'end_time'
p8
I-1
s.(dp0
S'shape'
p1
NsS'update_time'
p2
F1502908292.540727
sS'uid'
p3
I1
sS'time'
p4
F1502908292.540727
sS'start_time'
p5
F1502908292.135745
sS'event_y'
p6
F945.0
sS'event_x'
p7
F760.0
sS'end_time'
p8
I-1
s.(dp0
S'shape'
p1
NsS'update_time'
p2
F1502908292.557277
sS'uid'
p3
I1
sS'time'
p4
F1502908292.557277
sS'start_time'
p5
F1502908292.135745
sS'event_y'
p6
F946.0
sS'event_x'
p7
F758.0
sS'end_time'
p8
I-1
s.(dp0
S'shape'
p1
NsS'update_time'
p2
F1502908292.573929
sS'uid'
p3
I1
sS'time'
p4
F1502908292.573929
sS'start_time'
p5
F1502908292.135745
sS'event_y'
p6
F946.0
sS'event_x'
p7
F760.0
sS'end_time'
p8
I-1
s.(dp0
S'shape'
p1
NsS'update_time'
p2
F1502908292.590483
sS'uid'
p3
I1
sS'time'
p4
F1502908292.590483
sS'start_time'
p5
F1502908292.135745
sS'event_y'
p6
F947.0
sS'event_x'
p7
F757.0
sS'end_time'
p8
I-1
s.(dp0
S'shape'
p1
NsS'update_time'
p2
F1502908292.63175
sS'uid'
p3
I1
sS'time'
p4
F1502908292.63175
sS'start_time'
p5
F1502908292.135745
sS'event_y'
p6
F956.0000000000001
sS'event_x'
p7
F751.0
sS'end_time'
p8
I-1
s.(dp0
S'shape'
p1
NsS'update_time'
p2
F1502908292.656335
sS'uid'
p3
I1
sS'time'
p4
F1502908292.656335
sS'start_time'
p5
F1502908292.135745
sS'event_y'
p6
F957.0
sS'event_x'
p7
F759.0
sS'end_time'
p8
I-1
s.(dp0
S'shape'
p1
NsS'update_time'
p2
F1502908292.680929
sS'uid'
p3
I1
sS'time'
p4
F1502908292.680929
sS'start_time'
p5
F1502908292.135745
sS'event_y'
p6
F958.0
sS'event_x'
p7
F744.0
sS'end_time'
p8
I-1
s.(dp0
S'shape'
p1
NsS'update_time'
p2
F1502908292.705522
sS'uid'
p3
I1
sS'time'
p4
F1502908292.705522
sS'start_time'
p5
F1502908292.135745
sS'event_y'
p6
F988.0000000000001
sS'event_x'
p7
F756.0
sS'end_time'
p8
I-1
s.(dp0
S'shape'
p1
NsS'update_time'
p2
F1502908292.730126
sS'uid'
p3
I1
sS'time'
p4
F1502908292.730126
sS'start_time'
p5
F1502908292.135745
sS'event_y'
p6
F995.0
sS'event_x'
p7
F712.0
sS'end_time'
p8
I-1
s.(dp0
S'shape'
p1
NsS'update_time'
p2
F1502908292.754719
sS'uid'
p3
I1
sS'time'
p4
F1502908292.754719
sS'start_time'
p5
F1502908292.135745
sS'event_y'
p6
F1002.0
sS'event_x'
p7
F712.0
sS'end_time'
p8
I-1
s.(dp0
S'shape'
p1
NsS'update_time'
p2
F1502908292.779319
sS'uid'
p3
I1
sS'time'
p4
F1502908292.779319
sS'start_time'
p5
F1502908292.135745
sS'event_y'
p6
F1013.0
sS'event_x'
p7
F721.0
sS'end_time'
p8
I-1
s.(dp0
S'shape'
p1
NsS'update_time'
p2
F1502908292.803925
sS'uid'
p3
I1
sS'time'
p4
F1502908292.803925
sS'start_time'
p5
F1502908292.135745
sS'event_y'
p6
F1015.0
sS'event_x'
p7
F742.0
sS'end_time'
p8
I-1
s.(dp0
S'shape'
p1
NsS'update_time'
p2
F1502908292.828533
sS'uid'
p3
I1
sS'time'
p4
F1502908292.828533
sS'start_time'
p5
F1502908292.135745
sS'event_y'
p6
F1022.0
sS'event_x'
p7
F737.0
sS'end_time'
p8
I-1
s.(dp0
S'shape'
p1
NsS'update_time'
p2
F1502908293.224478
sS'uid'
p3
I1
sS'time'
p4
F1502908293.224478
sS'start_time'
p5
F1502908292.135745
sS'event_y'
p6
F1019.0
sS'event_x'
p7
F710.0
sS'end_time'
p8
I-1
s.(dp0
S'shape'
p1
NsS'update_time'
p2
F1502908293.249241
sS'uid'
p3
I1
sS'time'
p4
F1502908293.249241
sS'start_time'
p5
F1502908292.135745
sS'event_y'
p6
F1002.0
sS'event_x'
p7
F714.0
sS'end_time'
p8
I-1
s.(dp0
S'shape'
p1
NsS'update_time'
p2
F1502908293.273792
sS'uid'
p3
I1
sS'time'
p4
F1502908293.273792
sS'start_time'
p5
F1502908292.135745
sS'event_y'
p6
F989.0
sS'event_x'
p7
F745.0
sS'end_time'
p8
I-1
s.(dp0
S'shape'
p1
NsS'update_time'
p2
F1502908293.298501
sS'uid'
p3
I1
sS'time'
p4
F1502908293.298501
sS'start_time'
p5
F1502908292.135745
sS'event_y'
p6
F969.0
sS'event_x'
p7
F723.0
sS'end_time'
p8
I-1
s.(dp0
S'shape'
p1
NsS'update_time'
p2
F1502908293.323164
sS'uid'
p3
I1
sS'time'
p4
F1502908293.323164
sS'start_time'
p5
F1502908292.135745
sS'event_y'
p6
F926.0
sS'event_x'
p7
F814.0
sS'end_time'
p8
I-1
s.(dp0
S'shape'
p1
NsS'update_time'
p2
F1502908293.34785
sS'uid'
p3
I1
sS'time'
p4
F1502908293.34785
sS'start_time'
p5
F1502908292.135745
sS'event_y'
p6
F876.0000000000001
sS'event_x'
p7
F858.9999999999999
sS'end_time'
p8
I-1
s.(dp0
S'shape'
p1
NsS'update_time'
p2
F1502908293.384818
sS'uid'
p3
I1
sS'time'
p4
F1502908293.384818
sS'start_time'
p5
F1502908292.135745
sS'event_y'
p6
F863.0
sS'event_x'
p7
F838.0
sS'end_time'
p8
I-1
s.(dp0
S'shape'
p1
NsS'update_time'
p2
F1502908408.890162
sS'uid'
p3
I2
sS'time'
p4
F1502908408.890162
sS'start_time'
p5
F1502908408.890162
sS'event_y'
p6
F987.0
sS'event_x'
p7
F1678.0
sS'end_time'
p8
I-1
s.(dp0
S'shape'
p1
NsS'update_time'
p2
F1502908408.890162
sS'uid'
p3
I2
sS'time'
p4
F1502908408.890162
sS'start_time'
p5
F1502908408.890162
sS'event_y'
p6
F987.0
sS'event_x'
p7
F1678.0
sS'end_time'
p8
F1502908408.93934
s.(dp0
S'shape'
p1
NsS'update_time'
p2
F1502908408.976427
sS'uid'
p3
I3
sS'time'
p4
F1502908408.976427
sS'start_time'
p5
F1502908408.976427
sS'event_y'
p6
F985.0
sS'event_x'
p7
F1678.0
sS'end_time'
p8
I-1
s.(dp0
S'shape'
p1
NsS'update_time'
p2
F1502908408.976427
sS'uid'
p3
I3
sS'time'
p4
F1502908408.976427
sS'start_time'
p5
F1502908408.976427
sS'event_y'
p6
F985.0
sS'event_x'
p7
F1678.0
sS'end_time'
p8
F1502908408.989255
s.(dp0
S'desc'
p1
S'Advanced slide'
p2
sS'time'
p3
F1502908427.610283
s.(dp0
S'desc'
p1
S'Advanced slide'
p2
sS'time'
p3
F1502908436.642362
s.(dp0
S'desc'
p1
S'Advanced slide'
p2
sS'time'
p3
F1502908443.287669
s.(dp0
S'desc'
p1
S'Advanced slide'
p2
sS'time'
p3
F1502908447.785133
s.(dp0
S'desc'
p1
S'Advanced slide'
p2
sS'time'
p3
F1502908455.75514
s.(dp0
S'desc'
p1
S'Advanced slide'
p2
sS'time'
p3
F1502908460.011196
s.(dp0
S'desc'
p1
S'Advanced slide'
p2
sS'time'
p3
F1502908465.626098
s.(dp0
S'desc'
p1
S'Advanced slide'
p2
sS'time'
p3
F1502908471.484933
s.(dp0
S'desc'
p1
S'Advanced slide'
p2
sS'time'
p3
F1502908482.1956
s.(dp0
S'desc'
p1
S'Advanced slide'
p2
sS'time'
p3
F1502908488.896869
s.(dp0
S'desc'
p1
S'Advanced slide'
p2
sS'time'
p3
F1502908499.009349
s.(dp0
S'desc'
p1
S'Advanced slide'
p2
sS'time'
p3
F1502908507.10134
s.(dp0
S'desc'
p1
S'Advanced slide'
p2
sS'time'
p3
F1502908521.009979
s.(dp0
S'desc'
p1
S'Advanced slide'
p2
sS'time'
p3
F1502908526.239197
s.(dp0
S'desc'
p1
S'Advanced slide'
p2
sS'time'
p3
F1502908555.932805
s.(dp0
S'desc'
p1
S'Advanced slide'
p2
sS'time'
p3
F1502908561.155758
s.(dp0
S'desc'
p1
S'Advanced slide'
p2
sS'time'
p3
F1502908574.652333
s.(dp0
S'desc'
p1
S'Advanced slide'
p2
sS'time'
p3
F1502908579.077608
s.(dp0
S'desc'
p1
S'Advanced slide'
p2
sS'time'
p3
F1502908584.760026
s.(dp0
S'desc'
p1
S'Advanced slide'
p2
sS'time'
p3
F1502908592.24343
s.(dp0
S'desc'
p1
S'Advanced slide'
p2
sS'time'
p3
F1502908607.28501
s.(dp0
S'desc'
p1
S'Advanced slide'
p2
sS'time'
p3
F1502908614.541838
s.(dp0
S'desc'
p1
S'Advanced slide'
p2
sS'time'
p3
F1502908625.221447
s.(dp0
S'desc'
p1
S'Advanced slide'
p2
sS'time'
p3
F1502908631.088944
s.(dp0
S'desc'
p1
S'Advanced slide'
p2
sS'time'
p3
F1502908651.36069
s.(dp0
S'desc'
p1
S'Advanced slide'
p2
sS'time'
p3
F1502908657.650751
s.(dp0
S'desc'
p1
S'Advanced slide'
p2
sS'time'
p3
F1502908673.082445
s.(dp0
S'desc'
p1
S'Advanced slide'
p2
sS'time'
p3
F1502908678.790865
s.(dp0
S'desc'
p1
S'Advanced slide'
p2
sS'time'
p3
F1502908688.989011
s.(dp0
S'desc'
p1
S'Advanced slide'
p2
sS'time'
p3
F1502908699.922471
s.(dp0
S'desc'
p1
S'Advanced slide'
p2
sS'time'
p3
F1502908716.015685
s.(dp0
S'desc'
p1
S'Advanced slide'
p2
sS'time'
p3
F1502908721.651804
s.(dp0
S'desc'
p1
S'Advanced slide'
p2
sS'time'
p3
F1502908736.971588
s.(dp0
S'desc'
p1
S'Advanced slide'
p2
sS'time'
p3
F1502908743.992224
s.(dp0
S'desc'
p1
S'Advanced slide'
p2
sS'time'
p3
F1502908756.31271
s.(dp0
S'desc'
p1
S'Advanced slide'
p2
sS'time'
p3
F1502908762.800342
s.(dp0
S'desc'
p1
S'Quit experiment'
p2
sS'time'
p3
F1502908778.049203
s.